target datalayout = "e-m:e-p270:32:32-p271:32:32-p272:64:64-i64:64-i128:128-f80:128-n8:16:32:64-S128"
target triple = "x86_64-pc-linux-gnu"

; Function Attrs: nounwind uwtable
define i64 @H5VM_array_offset_pre(i32 noundef %0, ptr noundef %1, ptr noundef %2) #0 {
  %4 = alloca i32, align 4
  %5 = alloca ptr, align 8
  %6 = alloca ptr, align 8
  %7 = alloca i32, align 4
  %8 = alloca i64, align 8
  store i32 %0, ptr %4, align 4
  store ptr %1, ptr %5, align 8
  store ptr %2, ptr %6, align 8
  store i32 0, ptr %7, align 4
  store i64 0, ptr %8, align 8
  br label %9

9:                                                ; preds = %27, %3
  %10 = load i32, ptr %7, align 4
  %11 = load i32, ptr %4, align 4
  %12 = icmp ult i32 %10, %11
  br i1 %12, label %13, label %30

13:                                               ; preds = %9
  %14 = load ptr, ptr %5, align 8
  %15 = load i32, ptr %7, align 4
  %16 = zext i32 %15 to i64
  %17 = getelementptr inbounds i64, ptr %14, i64 %16
  %18 = load i64, ptr %17, align 8
  %19 = load ptr, ptr %6, align 8
  %20 = load i32, ptr %7, align 4
  %21 = zext i32 %20 to i64
  %22 = getelementptr inbounds i64, ptr %19, i64 %21
  %23 = load i64, ptr %22, align 8
  %24 = mul i64 %18, %23
  %25 = load i64, ptr %8, align 8
  %26 = add i64 %25, %24
  store i64 %26, ptr %8, align 8
  br label %27

27:                                               ; preds = %13
  %28 = load i32, ptr %7, align 4
  %29 = add i32 %28, 1
  store i32 %29, ptr %7, align 4
  br label %9

30:                                               ; preds = %9
  %31 = load i64, ptr %8, align 8
  ret i64 %31
}

; Function Attrs: nounwind uwtable
define i64 @H5VM_chunk_index_scaled(i32 noundef %0, ptr noundef %1, ptr noundef %2, ptr noundef %3, ptr noundef %4) #0 {
  %6 = alloca i32, align 4
  %7 = alloca ptr, align 8
  %8 = alloca ptr, align 8
  %9 = alloca ptr, align 8
  %10 = alloca ptr, align 8
  %11 = alloca i64, align 8
  %12 = alloca i32, align 4
  store i32 %0, ptr %6, align 4
  store ptr %1, ptr %7, align 8
  store ptr %2, ptr %8, align 8
  store ptr %3, ptr %9, align 8
  store ptr %4, ptr %10, align 8
  store i32 0, ptr %12, align 4
  br label %13

13:                                               ; preds = %34, %5
  %14 = load i32, ptr %12, align 4
  %15 = load i32, ptr %6, align 4
  %16 = icmp ult i32 %14, %15
  br i1 %16, label %17, label %37

17:                                               ; preds = %13
  %18 = load ptr, ptr %7, align 8
  %19 = load i32, ptr %12, align 4
  %20 = zext i32 %19 to i64
  %21 = getelementptr inbounds i64, ptr %18, i64 %20
  %22 = load i64, ptr %21, align 8
  %23 = load ptr, ptr %8, align 8
  %24 = load i32, ptr %12, align 4
  %25 = zext i32 %24 to i64
  %26 = getelementptr inbounds i32, ptr %23, i64 %25
  %27 = load i32, ptr %26, align 4
  %28 = zext i32 %27 to i64
  %29 = udiv i64 %22, %28
  %30 = load ptr, ptr %10, align 8
  %31 = load i32, ptr %12, align 4
  %32 = zext i32 %31 to i64
  %33 = getelementptr inbounds i64, ptr %30, i64 %32
  store i64 %29, ptr %33, align 8
  br label %34

34:                                               ; preds = %17
  %35 = load i32, ptr %12, align 4
  %36 = add i32 %35, 1
  store i32 %36, ptr %12, align 4
  br label %13

37:                                               ; preds = %13
  %38 = load i32, ptr %6, align 4
  %39 = load ptr, ptr %9, align 8
  %40 = load ptr, ptr %10, align 8
  %41 = call i64 @H5VM_array_offset_pre(i32 noundef %38, ptr noundef %39, ptr noundef %40)
  store i64 %41, ptr %11, align 8
  %42 = load i64, ptr %11, align 8
  ret i64 %42
}

; Function Attrs: nounwind uwtable
define i64 @H5VM_chunk_index(i32 noundef %0, ptr noundef %1, ptr noundef %2, ptr noundef %3) #0 {
  %5 = alloca i32, align 4
  %6 = alloca ptr, align 8
  %7 = alloca ptr, align 8
  %8 = alloca ptr, align 8
  %9 = alloca [33 x i64], align 16
  %10 = alloca i64, align 8
  store i32 %0, ptr %5, align 4
  store ptr %1, ptr %6, align 8
  store ptr %2, ptr %7, align 8
  store ptr %3, ptr %8, align 8
  %11 = load i32, ptr %5, align 4
  %12 = load ptr, ptr %6, align 8
  %13 = load ptr, ptr %7, align 8
  %14 = load ptr, ptr %8, align 8
  %15 = getelementptr inbounds [33 x i64], ptr %9, i64 0, i64 0
  %16 = call i64 @H5VM_chunk_index_scaled(i32 noundef %11, ptr noundef %12, ptr noundef %13, ptr noundef %14, ptr noundef %15)
  store i64 %16, ptr %10, align 8
  %17 = load i64, ptr %10, align 8
  ret i64 %17
}