; Function Attrs: nofree norecurse nosync nounwind memory(argmem: read) uwtable
define i64 @H5VM_chunk_index(i32 noundef %0, ptr nocapture noundef readonly %1, ptr nocapture noundef readonly %2, ptr nocapture noundef readonly %3) local_unnamed_addr #1 {
  %5 = alloca [33 x i64], align 16
  %.not.i = icmp eq i32 %0, 0
  br i1 %.not.i, label %H5VM_chunk_index_scaled.exit, label %.lr.ph.preheader.i

.lr.ph.preheader.i:                               ; preds = %4
  %wide.trip.count.i = zext i32 %0 to i64
  br label %.lr.ph.i

.lr.ph.i:                                         ; preds = %.lr.ph.i, %.lr.ph.preheader.i
  %indvars.iv.i = phi i64 [ 0, %.lr.ph.preheader.i ], [ %indvars.iv.next.i, %.lr.ph.i ]
  %6 = getelementptr inbounds i64, ptr %1, i64 %indvars.iv.i
  %7 = load i64, ptr %6, align 8
  %8 = getelementptr inbounds i32, ptr %2, i64 %indvars.iv.i
  %9 = load i32, ptr %8, align 4
  %10 = zext i32 %9 to i64
  %11 = udiv i64 %7, %10
  %12 = getelementptr inbounds i64, ptr %5, i64 %indvars.iv.i
  store i64 %11, ptr %12, align 8
  %indvars.iv.next.i = add nuw nsw i64 %indvars.iv.i, 1
  %exitcond.not.i = icmp eq i64 %indvars.iv.next.i, %wide.trip.count.i
  br i1 %exitcond.not.i, label %.lr.ph.i.i, label %.lr.ph.i

.lr.ph.i.i:                                       ; preds = %.lr.ph.i, %.lr.ph.i.i
  %indvars.iv.i.i = phi i64 [ %indvars.iv.next.i.i, %.lr.ph.i.i ], [ 0, %.lr.ph.i ]
  %.010.i.i = phi i64 [ %18, %.lr.ph.i.i ], [ 0, %.lr.ph.i ]
  %13 = getelementptr inbounds i64, ptr %3, i64 %indvars.iv.i.i
  %14 = load i64, ptr %13, align 8
  %15 = getelementptr inbounds i64, ptr %5, i64 %indvars.iv.i.i
  %16 = load i64, ptr %15, align 8
  %17 = mul i64 %16, %14
  %18 = add i64 %17, %.010.i.i
  %indvars.iv.next.i.i = add nuw nsw i64 %indvars.iv.i.i, 1
  %exitcond.not.i.i = icmp eq i64 %indvars.iv.next.i.i, %wide.trip.count.i
  br i1 %exitcond.not.i.i, label %H5VM_chunk_index_scaled.exit, label %.lr.ph.i.i

H5VM_chunk_index_scaled.exit:                     ; preds = %.lr.ph.i.i, %4
  %.0.lcssa.i.i = phi i64 [ 0, %4 ], [ %18, %.lr.ph.i.i ]
  ret i64 %.0.lcssa.i.i
}